target datalayout = "e-m:e-p270:32:32-p271:32:32-p272:64:64-i64:64-i128:128-f80:128-n8:16:32:64-S128"
target triple = "x86_64-pc-linux-gnu"

%"class.absl::lts_20240722::Mutex" = type { %"struct.std::atomic.14" }
%"struct.std::atomic.14" = type { %"struct.std::__atomic_base.15" }
%"struct.std::__atomic_base.15" = type { i64 }
%"class.grpc_core::Orphanable" = type { ptr }
%"class.grpc_core::Activity" = type { %"class.grpc_core::Orphanable" }
%"class.grpc_core::Wakeable" = type { ptr }
%"class.grpc_core::promise_detail::FreestandingActivity" = type { %"class.grpc_core::Activity", %"class.grpc_core::Wakeable", %"class.absl::lts_20240722::Mutex", %"struct.std::atomic.1100", i8, ptr }
%"struct.std::atomic.1100" = type { %"struct.std::__atomic_base.1101" }
%"struct.std::__atomic_base.1101" = type { i32 }

; Function Attrs: alwaysinline mustprogress nounwind uwtable
define linkonce_odr noundef i32 @_ZNSt13__atomic_baseIjE9fetch_subEjSt12memory_order(ptr noundef nonnull align 4 dereferenceable(4) %0, i32 noundef %1, i32 noundef %2) #18 comdat align 2 {
  %4 = alloca ptr, align 8
  %5 = alloca i32, align 4
  %6 = alloca i32, align 4
  %7 = alloca i32, align 4
  %8 = alloca i32, align 4
  store ptr %0, ptr %4, align 8, !tbaa !2984
  store i32 %1, ptr %5, align 4, !tbaa !129
  store i32 %2, ptr %6, align 4, !tbaa !646
  %9 = load ptr, ptr %4, align 8
  %10 = getelementptr inbounds nuw %"struct.std::__atomic_base.1101", ptr %9, i32 0, i32 0
  %11 = load i32, ptr %6, align 4, !tbaa !646
  %12 = load i32, ptr %5, align 4, !tbaa !129
  store i32 %12, ptr %7, align 4, !tbaa !129
  switch i32 %11, label %13 [
    i32 1, label %16
    i32 2, label %16
    i32 3, label %19
    i32 4, label %22
    i32 5, label %25
  ]

13:                                               ; preds = %3
  %14 = load i32, ptr %7, align 4
  %15 = atomicrmw sub ptr %10, i32 %14 monotonic, align 4
  store i32 %15, ptr %8, align 4
  br label %28

16:                                               ; preds = %3, %3
  %17 = load i32, ptr %7, align 4
  %18 = atomicrmw sub ptr %10, i32 %17 acquire, align 4
  store i32 %18, ptr %8, align 4
  br label %28

19:                                               ; preds = %3
  %20 = load i32, ptr %7, align 4
  %21 = atomicrmw sub ptr %10, i32 %20 release, align 4
  store i32 %21, ptr %8, align 4
  br label %28

22:                                               ; preds = %3
  %23 = load i32, ptr %7, align 4
  %24 = atomicrmw sub ptr %10, i32 %23 acq_rel, align 4
  store i32 %24, ptr %8, align 4
  br label %28

25:                                               ; preds = %3
  %26 = load i32, ptr %7, align 4
  %27 = atomicrmw sub ptr %10, i32 %26 seq_cst, align 4
  store i32 %27, ptr %8, align 4
  br label %28

28:                                               ; preds = %25, %22, %19, %16, %13
  %29 = load i32, ptr %8, align 4, !tbaa !129
  ret i32 %29
}

; Function Attrs: mustprogress nounwind uwtable
define linkonce_odr void @_ZN9grpc_core14promise_detail20FreestandingActivity5UnrefEv(ptr noundef nonnull align 8 dereferenceable(40) %0) #5 comdat align 2 {
  %2 = alloca ptr, align 8
  store ptr %0, ptr %2, align 8, !tbaa !2964
  %3 = load ptr, ptr %2, align 8
  %4 = getelementptr inbounds nuw %"class.grpc_core::promise_detail::FreestandingActivity", ptr %3, i32 0, i32 3
  %5 = call noundef i32 @_ZNSt13__atomic_baseIjE9fetch_subEjSt12memory_order(ptr noundef nonnull align 4 dereferenceable(4) %4, i32 noundef 1, i32 noundef 4) #3
  %6 = icmp eq i32 1, %5
  br i1 %6, label %7, label %14

7:                                                ; preds = %1
  %8 = icmp eq ptr %3, null
  br i1 %8, label %13, label %9

9:                                                ; preds = %7
  %10 = load ptr, ptr %3, align 8, !tbaa !12
  %11 = getelementptr inbounds ptr, ptr %10, i64 2
  %12 = load ptr, ptr %11, align 8
  call void %12(ptr noundef nonnull align 8 dereferenceable(40) %3) #3
  br label %13

13:                                               ; preds = %9, %7
  br label %14

14:                                               ; preds = %13, %1
  ret void
}

; Function Attrs: mustprogress nounwind uwtable
define linkonce_odr void @_ZN9grpc_core14promise_detail20FreestandingActivity14WakeupCompleteEv(ptr noundef nonnull align 8 dereferenceable(40) %0) #5 comdat align 2 {
  %2 = alloca ptr, align 8
  store ptr %0, ptr %2, align 8, !tbaa !2964
  %3 = load ptr, ptr %2, align 8
  call void @_ZN9grpc_core14promise_detail20FreestandingActivity5UnrefEv(ptr noundef nonnull align 8 dereferenceable(40) %3)
  ret void
}

; Function Attrs: mustprogress nounwind uwtable
define internal void @"_ZN9grpc_core14promise_detail15PromiseActivityINS_4LoopIZNS_13ClientChannel14StartIdleTimerEvE3$_0EENS_22ExecCtxWakeupSchedulerEZNS3_14StartIdleTimerEvE3$_1JNS_13RefCountedPtrINS_5ArenaEEEEE4DropEt"(ptr noundef nonnull align 8 dereferenceable(144) %0, i16 noundef zeroext %1) unnamed_addr #5 align 2 {
  %3 = alloca ptr, align 8
  %4 = alloca i16, align 2
  store ptr %0, ptr %3, align 8, !tbaa !2946
  store i16 %1, ptr %4, align 2, !tbaa !640
  %5 = load ptr, ptr %3, align 8
  call void @_ZN9grpc_core14promise_detail20FreestandingActivity14WakeupCompleteEv(ptr noundef nonnull align 8 dereferenceable(40) %5)
  ret void
}

; Function Attrs: uwtable
define internal void @"_ZThn8_N9grpc_core14promise_detail15PromiseActivityINS_4LoopIZNS_13ClientChannel14StartIdleTimerEvE3$_0EENS_22ExecCtxWakeupSchedulerEZNS3_14StartIdleTimerEvE3$_1JNS_13RefCountedPtrINS_5ArenaEEEEE4DropEt"(ptr noundef %0, i16 noundef zeroext %1) unnamed_addr #0 align 2 {
  %3 = alloca ptr, align 8
  %4 = alloca i16, align 2
  store ptr %0, ptr %3, align 8, !tbaa !2946
  store i16 %1, ptr %4, align 2, !tbaa !640
  %5 = load ptr, ptr %3, align 8
  %6 = getelementptr inbounds i8, ptr %5, i64 -8
  %7 = load i16, ptr %4, align 2, !tbaa !640
  tail call void @"_ZN9grpc_core14promise_detail15PromiseActivityINS_4LoopIZNS_13ClientChannel14StartIdleTimerEvE3$_0EENS_22ExecCtxWakeupSchedulerEZNS3_14StartIdleTimerEvE3$_1JNS_13RefCountedPtrINS_5ArenaEEEEE4DropEt"(ptr noundef nonnull align 8 dereferenceable(144) %6, i16 noundef zeroext %7)
  ret void
}