; Function Attrs: uwtable
define internal void @"_ZThn8_N9grpc_core14promise_detail15PromiseActivityINS_4LoopIZNS_13ClientChannel14StartIdleTimerEvE3$_0EENS_22ExecCtxWakeupSchedulerEZNS3_14StartIdleTimerEvE3$_1JNS_13RefCountedPtrINS_5ArenaEEEEE4DropEt"(ptr noundef %0, i16 zeroext %1) unnamed_addr #22 align 2 {
  %3 = getelementptr inbounds nuw i8, ptr %0, i64 16
  %4 = atomicrmw sub ptr %3, i32 1 acq_rel, align 4
  %.not.i.i.i = icmp eq i32 %4, 1
  br i1 %.not.i.i.i, label %5, label %"_ZN9grpc_core14promise_detail15PromiseActivityINS_4LoopIZNS_13ClientChannel14StartIdleTimerEvE3$_0EENS_22ExecCtxWakeupSchedulerEZNS3_14StartIdleTimerEvE3$_1JNS_13RefCountedPtrINS_5ArenaEEEEE4DropEt.exit"

5:                                                ; preds = %2
  %6 = getelementptr inbounds i8, ptr %0, i64 -8
  %7 = load ptr, ptr %6, align 8, !tbaa !8
  %8 = getelementptr inbounds nuw i8, ptr %7, i64 16
  %9 = load ptr, ptr %8, align 8
  tail call void %9(ptr noundef nonnull align 8 dereferenceable(144) %6) #42
  br label %"_ZN9grpc_core14promise_detail15PromiseActivityINS_4LoopIZNS_13ClientChannel14StartIdleTimerEvE3$_0EENS_22ExecCtxWakeupSchedulerEZNS3_14StartIdleTimerEvE3$_1JNS_13RefCountedPtrINS_5ArenaEEEEE4DropEt.exit"

"_ZN9grpc_core14promise_detail15PromiseActivityINS_4LoopIZNS_13ClientChannel14StartIdleTimerEvE3$_0EENS_22ExecCtxWakeupSchedulerEZNS3_14StartIdleTimerEvE3$_1JNS_13RefCountedPtrINS_5ArenaEEEEE4DropEt.exit": ; preds = %2, %5
  ret void
}